; Function Attrs: nounwind uwtable
define hidden ptr @zend_shared_memdup_put(ptr noundef %0, i64 noundef %1) local_unnamed_addr #0 {
  %3 = alloca %struct._zval_struct, align 8
  %4 = load ptr, ptr getelementptr inbounds (%struct._zend_accel_globals, ptr @accel_globals, i64 0, i32 19), align 8
  %5 = add i64 %1, 7
  %6 = and i64 %5, -8
  %7 = getelementptr inbounds i8, ptr %4, i64 %6
  store ptr %7, ptr getelementptr inbounds (%struct._zend_accel_globals, ptr @accel_globals, i64 0, i32 19), align 8
  tail call void @llvm.memcpy.p0.p0.i64(ptr align 1 %4, ptr align 1 %0, i64 %1, i1 false)
  %8 = ptrtoint ptr %0 to i64
  %9 = tail call i64 @llvm.fshl.i64(i64 %8, i64 %8, i64 61)
  store ptr %4, ptr %3, align 8
  %10 = getelementptr inbounds i8, ptr %3, i64 8
  store i32 13, ptr %10, align 8
  %11 = call ptr @zend_hash_index_add_new(ptr noundef nonnull getelementptr inbounds (%struct._zend_accel_globals, ptr @accel_globals, i64 0, i32 17), i64 noundef %9, ptr noundef nonnull %3) #20
  ret ptr %4
}